target datalayout = "e-m:e-p270:32:32-p271:32:32-p272:64:64-i64:64-i128:128-f80:128-n8:16:32:64-S128"
target triple = "x86_64-pc-linux-gnu"

%struct._dcerpc_info = type { ptr, i32, i64, i8, i8, i8, i32, i32, i32, i32, i32, i32, i32, i32, ptr, ptr, ptr, ptr, %struct.anon }
%struct.anon = type { i8, ptr, ptr, ptr, i8 }

@ett_butc_Restore_flags = internal global i32 0, align 4
@hf_butc_Restore_flags_TC_RESTORE_CREATE = internal global i32 0, align 4
@.str = private unnamed_addr constant [19 x i8] c" TC_RESTORE_CREATE\00", align 1
@hf_butc_Restore_flags_TC_RESTORE_INCR = internal global i32 0, align 4
@.str.1 = private unnamed_addr constant [17 x i8] c" TC_RESTORE_INCR\00", align 1
@.str.2 = private unnamed_addr constant [14 x i8] c"UNKNOWN-FLAGS\00", align 1

; Function Attrs: null_pointer_is_valid sspstrong uwtable
define hidden i32 @butc_dissect_Restore_flags(ptr noundef %0, i32 noundef %1, ptr noundef %2, ptr noundef %3, ptr noundef %4, ptr noundef %5, i32 noundef %6, i32 noundef %7) #0 {
  %9 = alloca ptr, align 8
  %10 = alloca i32, align 4
  %11 = alloca ptr, align 8
  %12 = alloca ptr, align 8
  %13 = alloca ptr, align 8
  %14 = alloca ptr, align 8
  %15 = alloca i32, align 4
  %16 = alloca i32, align 4
  %17 = alloca ptr, align 8
  %18 = alloca ptr, align 8
  %19 = alloca i32, align 4
  store ptr %0, ptr %9, align 8
  store i32 %1, ptr %10, align 4
  store ptr %2, ptr %11, align 8
  store ptr %3, ptr %12, align 8
  store ptr %4, ptr %13, align 8
  store ptr %5, ptr %14, align 8
  store i32 %6, ptr %15, align 4
  store i32 %7, ptr %16, align 4
  call void @llvm.lifetime.start.p0(i64 8, ptr %17) #4
  store ptr null, ptr %17, align 8
  call void @llvm.lifetime.start.p0(i64 8, ptr %18) #4
  store ptr null, ptr %18, align 8
  call void @llvm.lifetime.start.p0(i64 4, ptr %19) #4
  %20 = load ptr, ptr %13, align 8
  %21 = getelementptr inbounds nuw %struct._dcerpc_info, ptr %20, i32 0, i32 4
  %22 = load i8, ptr %21, align 1, !range !6, !noundef !7
  %23 = trunc i8 %22 to i1
  br i1 %23, label %33, label %24

24:                                               ; preds = %8
  %25 = load i32, ptr %10, align 4
  %26 = and i32 %25, 3
  %27 = icmp ne i32 %26, 0
  br i1 %27, label %28, label %32

28:                                               ; preds = %24
  %29 = load i32, ptr %10, align 4
  %30 = and i32 %29, -4
  %31 = add i32 %30, 4
  store i32 %31, ptr %10, align 4
  br label %32

32:                                               ; preds = %28, %24
  br label %33

33:                                               ; preds = %32, %8
  %34 = load ptr, ptr %12, align 8
  %35 = icmp ne ptr %34, null
  br i1 %35, label %36, label %45

36:                                               ; preds = %33
  %37 = load ptr, ptr %12, align 8
  %38 = load i32, ptr %15, align 4
  %39 = load ptr, ptr %9, align 8
  %40 = load i32, ptr %10, align 4
  %41 = call ptr @proto_tree_add_item(ptr noundef %37, i32 noundef %38, ptr noundef %39, i32 noundef %40, i32 noundef 4, i32 noundef -2147483648)
  store ptr %41, ptr %17, align 8
  %42 = load ptr, ptr %17, align 8
  %43 = load i32, ptr @ett_butc_Restore_flags, align 4
  %44 = call ptr @proto_item_add_subtree(ptr noundef %42, i32 noundef %43)
  store ptr %44, ptr %18, align 8
  br label %45

45:                                               ; preds = %36, %33
  %46 = load ptr, ptr %9, align 8
  %47 = load i32, ptr %10, align 4
  %48 = load ptr, ptr %11, align 8
  %49 = load ptr, ptr %13, align 8
  %50 = load ptr, ptr %14, align 8
  %51 = call i32 @dissect_ndr_uint32(ptr noundef %46, i32 noundef %47, ptr noundef %48, ptr noundef null, ptr noundef %49, ptr noundef %50, i32 noundef -1, ptr noundef %19)
  store i32 %51, ptr %10, align 4
  %52 = load ptr, ptr %18, align 8
  %53 = load i32, ptr @hf_butc_Restore_flags_TC_RESTORE_CREATE, align 4
  %54 = load ptr, ptr %9, align 8
  %55 = load i32, ptr %10, align 4
  %56 = sub i32 %55, 4
  %57 = load i32, ptr %19, align 4
  %58 = zext i32 %57 to i64
  %59 = call ptr @proto_tree_add_boolean(ptr noundef %52, i32 noundef %53, ptr noundef %54, i32 noundef %56, i32 noundef 4, i64 noundef %58)
  %60 = load i32, ptr %19, align 4
  %61 = and i32 %60, 1
  %62 = icmp ne i32 %61, 0
  br i1 %62, label %63, label %65

63:                                               ; preds = %45
  %64 = load ptr, ptr %17, align 8
  call void (ptr, ptr, ...) @proto_item_append_text(ptr noundef %64, ptr noundef @.str)
  br label %65

65:                                               ; preds = %63, %45
  %66 = load i32, ptr %19, align 4
  %67 = and i32 %66, -2
  store i32 %67, ptr %19, align 4
  %68 = load ptr, ptr %18, align 8
  %69 = load i32, ptr @hf_butc_Restore_flags_TC_RESTORE_INCR, align 4
  %70 = load ptr, ptr %9, align 8
  %71 = load i32, ptr %10, align 4
  %72 = sub i32 %71, 4
  %73 = load i32, ptr %19, align 4
  %74 = zext i32 %73 to i64
  %75 = call ptr @proto_tree_add_boolean(ptr noundef %68, i32 noundef %69, ptr noundef %70, i32 noundef %72, i32 noundef 4, i64 noundef %74)
  %76 = load i32, ptr %19, align 4
  %77 = and i32 %76, 2
  %78 = icmp ne i32 %77, 0
  br i1 %78, label %79, label %81

79:                                               ; preds = %65
  %80 = load ptr, ptr %17, align 8
  call void (ptr, ptr, ...) @proto_item_append_text(ptr noundef %80, ptr noundef @.str.1)
  br label %81

81:                                               ; preds = %79, %65
  %82 = load i32, ptr %19, align 4
  %83 = and i32 %82, -3
  store i32 %83, ptr %19, align 4
  %84 = load i32, ptr %19, align 4
  %85 = icmp ne i32 %84, 0
  br i1 %85, label %86, label %88

86:                                               ; preds = %81
  %87 = load ptr, ptr %17, align 8
  call void (ptr, ptr, ...) @proto_item_append_text(ptr noundef %87, ptr noundef @.str.2)
  br label %88

88:                                               ; preds = %86, %81
  %89 = load i32, ptr %10, align 4
  call void @llvm.lifetime.end.p0(i64 4, ptr %19) #4
  call void @llvm.lifetime.end.p0(i64 8, ptr %18) #4
  call void @llvm.lifetime.end.p0(i64 8, ptr %17) #4
  ret i32 %89
}