; Function Attrs: null_pointer_is_valid sspstrong uwtable
define hidden i32 @butc_dissect_Restore_flags(ptr noundef %0, i32 noundef %1, ptr noundef %2, ptr noundef %3, ptr noundef %4, ptr noundef %5, i32 noundef %6, i32 %7) local_unnamed_addr #0 {
  %9 = alloca i32, align 4
  call void @llvm.lifetime.start.p0(i64 4, ptr nonnull %9) #4
  %10 = getelementptr inbounds nuw i8, ptr %4, i64 25
  %11 = load i8, ptr %10, align 1, !range !6, !noundef !7
  %12 = trunc nuw i8 %11 to i1
  %13 = and i32 %1, 3
  %.not = icmp eq i32 %13, 0
  %or.cond = or i1 %.not, %12
  %14 = and i32 %1, -4
  %15 = add i32 %14, 4
  %.024 = select i1 %or.cond, i32 %1, i32 %15
  %.not26 = icmp eq ptr %3, null
  br i1 %.not26, label %20, label %16

16:                                               ; preds = %8
  %17 = tail call ptr @proto_tree_add_item(ptr noundef nonnull %3, i32 noundef %6, ptr noundef %0, i32 noundef %.024, i32 noundef 4, i32 noundef -2147483648)
  %18 = load i32, ptr @ett_butc_Restore_flags, align 4
  %19 = tail call ptr @proto_item_add_subtree(ptr noundef %17, i32 noundef %18)
  br label %20

20:                                               ; preds = %16, %8
  %.023 = phi ptr [ %17, %16 ], [ null, %8 ]
  %.0 = phi ptr [ %19, %16 ], [ null, %8 ]
  %21 = call i32 @dissect_ndr_uint32(ptr noundef %0, i32 noundef %.024, ptr noundef %2, ptr noundef null, ptr noundef %4, ptr noundef %5, i32 noundef -1, ptr noundef nonnull %9)
  %22 = load i32, ptr @hf_butc_Restore_flags_TC_RESTORE_CREATE, align 4
  %23 = add i32 %21, -4
  %24 = load i32, ptr %9, align 4
  %25 = zext i32 %24 to i64
  %26 = call ptr @proto_tree_add_boolean(ptr noundef %.0, i32 noundef %22, ptr noundef %0, i32 noundef %23, i32 noundef 4, i64 noundef %25)
  %27 = load i32, ptr %9, align 4
  %28 = and i32 %27, 1
  %.not27 = icmp eq i32 %28, 0
  br i1 %.not27, label %30, label %29

29:                                               ; preds = %20
  call void (ptr, ptr, ...) @proto_item_append_text(ptr noundef %.023, ptr noundef nonnull @.str)
  %.pre = load i32, ptr %9, align 4
  br label %30

30:                                               ; preds = %29, %20
  %31 = phi i32 [ %.pre, %29 ], [ %27, %20 ]
  %32 = and i32 %31, -2
  store i32 %32, ptr %9, align 4
  %33 = load i32, ptr @hf_butc_Restore_flags_TC_RESTORE_INCR, align 4
  %34 = zext i32 %32 to i64
  %35 = call ptr @proto_tree_add_boolean(ptr noundef %.0, i32 noundef %33, ptr noundef %0, i32 noundef %23, i32 noundef 4, i64 noundef %34)
  %36 = load i32, ptr %9, align 4
  %37 = and i32 %36, 2
  %.not28 = icmp eq i32 %37, 0
  br i1 %.not28, label %39, label %38

38:                                               ; preds = %30
  call void (ptr, ptr, ...) @proto_item_append_text(ptr noundef %.023, ptr noundef nonnull @.str.1)
  %.pre30 = load i32, ptr %9, align 4
  br label %39

39:                                               ; preds = %38, %30
  %40 = phi i32 [ %.pre30, %38 ], [ %36, %30 ]
  %41 = and i32 %40, -3
  store i32 %41, ptr %9, align 4
  %.not29 = icmp eq i32 %41, 0
  br i1 %.not29, label %43, label %42

42:                                               ; preds = %39
  call void (ptr, ptr, ...) @proto_item_append_text(ptr noundef %.023, ptr noundef nonnull @.str.2)
  br label %43

43:                                               ; preds = %42, %39
  call void @llvm.lifetime.end.p0(i64 4, ptr nonnull %9) #4
  ret i32 %21
}